target datalayout = "e-m:e-p270:32:32-p271:32:32-p272:64:64-i64:64-i128:128-f80:128-n8:16:32:64-S128"
target triple = "x86_64-pc-linux-gnu"

%"class.grpc_core::ChannelArgs::Pointer" = type { ptr, ptr }
%"class.grpc_core::ChannelArgs" = type { %"class.grpc_core::AVL" }
%"class.grpc_core::AVL" = type { %"class.grpc_core::RefCountedPtr" }
%"class.grpc_core::RefCountedPtr" = type { ptr }
%"struct.grpc_core::AVL<grpc_core::RefCountedStringValue, grpc_core::ChannelArgs::Value>::Node" = type { %"class.grpc_core::RefCounted", %"struct.std::pair.79", %"class.grpc_core::RefCountedPtr", %"class.grpc_core::RefCountedPtr", i64 }
%"class.grpc_core::RefCounted" = type { %"class.grpc_core::RefCount" }
%"class.grpc_core::RefCount" = type { %"struct.std::atomic" }
%"struct.std::atomic" = type { %"struct.std::__atomic_base" }
%"struct.std::__atomic_base" = type { i64 }
%"struct.std::pair.79" = type { %"class.grpc_core::RefCountedStringValue", %"class.grpc_core::ChannelArgs::Value" }
%"class.grpc_core::RefCountedStringValue" = type { %"class.grpc_core::RefCountedPtr.2" }
%"class.grpc_core::RefCountedPtr.2" = type { ptr }
%"class.grpc_core::ChannelArgs::Value" = type { %"class.grpc_core::ChannelArgs::Pointer" }
%class.anon.56 = type { ptr }
%class.anon.57 = type { ptr }

@_ZN9grpc_core11ChannelArgsD1Ev = unnamed_addr alias void (ptr), ptr @_ZN9grpc_core11ChannelArgsD2Ev
@_ZN9grpc_core11ChannelArgsC1ERKS0_ = unnamed_addr alias void (ptr, ptr), ptr @_ZN9grpc_core11ChannelArgsC2ERKS0_
@_ZN9grpc_core11ChannelArgsC1EOS0_ = unnamed_addr alias void (ptr, ptr), ptr @_ZN9grpc_core11ChannelArgsC2EOS0_

; Function Attrs: mustprogress nounwind uwtable
define linkonce_odr noundef ptr @_ZNK9grpc_core13RefCountedPtrINS_3AVLINS_21RefCountedStringValueENS_11ChannelArgs5ValueEE4NodeEE3getEv(ptr noundef nonnull align 8 dereferenceable(8) %0) #6 comdat align 2 {
  %2 = alloca ptr, align 8
  store ptr %0, ptr %2, align 8, !tbaa !173
  %3 = load ptr, ptr %2, align 8
  %4 = getelementptr inbounds nuw %"class.grpc_core::RefCountedPtr", ptr %3, i32 0, i32 0
  %5 = load ptr, ptr %4, align 8, !tbaa !175
  ret ptr %5
}

; Function Attrs: mustprogress nounwind uwtable
define linkonce_odr noundef ptr @_ZNK9grpc_core13RefCountedPtrINS_3AVLINS_21RefCountedStringValueENS_11ChannelArgs5ValueEE4NodeEEptEv(ptr noundef nonnull align 8 dereferenceable(8) %0) #6 comdat align 2 {
  %2 = alloca ptr, align 8
  store ptr %0, ptr %2, align 8, !tbaa !173
  %3 = load ptr, ptr %2, align 8
  %4 = getelementptr inbounds nuw %"class.grpc_core::RefCountedPtr", ptr %3, i32 0, i32 0
  %5 = load ptr, ptr %4, align 8, !tbaa !175
  ret ptr %5
}

; Function Attrs: mustprogress nounwind uwtable
define linkonce_odr noundef zeroext i1 @_ZNK9grpc_core13RefCountedPtrINS_3AVLINS_21RefCountedStringValueENS_11ChannelArgs5ValueEE4NodeEEeqEDn(ptr noundef nonnull align 8 dereferenceable(8) %0, ptr %1) #6 comdat align 2 {
  %3 = alloca ptr, align 8
  %4 = alloca ptr, align 8
  store ptr %0, ptr %3, align 8, !tbaa !173
  store ptr %1, ptr %4, align 8, !tbaa !82
  %5 = load ptr, ptr %3, align 8
  %6 = getelementptr inbounds nuw %"class.grpc_core::RefCountedPtr", ptr %5, i32 0, i32 0
  %7 = load ptr, ptr %6, align 8, !tbaa !175
  %8 = icmp eq ptr %7, null
  ret i1 %8
}

; Function Attrs: mustprogress uwtable
define internal void @"_ZNK9grpc_core3AVLINS_21RefCountedStringValueENS_11ChannelArgs5ValueEE7ForEachIZNKS2_9UnionWithES2_E3$_1EEvOT_"(ptr noundef nonnull align 8 dereferenceable(8) %0, ptr noundef nonnull align 8 dereferenceable(8) %1) #5 align 2 {
  %3 = alloca ptr, align 8
  %4 = alloca ptr, align 8
  store ptr %0, ptr %3, align 8, !tbaa !18
  store ptr %1, ptr %4, align 8, !tbaa !3
  %5 = load ptr, ptr %3, align 8
  %6 = getelementptr inbounds nuw %"class.grpc_core::AVL", ptr %5, i32 0, i32 0
  %7 = call noundef ptr @_ZNK9grpc_core13RefCountedPtrINS_3AVLINS_21RefCountedStringValueENS_11ChannelArgs5ValueEE4NodeEE3getEv(ptr noundef nonnull align 8 dereferenceable(8) %6)
  %8 = load ptr, ptr %4, align 8, !tbaa !3
  call void @"_ZN9grpc_core3AVLINS_21RefCountedStringValueENS_11ChannelArgs5ValueEE11ForEachImplIZNKS2_9UnionWithES2_E3$_1EEvPKNS4_4NodeEOT_"(ptr noundef %7, ptr noundef nonnull align 8 dereferenceable(8) %8)
  ret void
}

; Function Attrs: mustprogress uwtable
define internal void @"_ZNK9grpc_core3AVLINS_21RefCountedStringValueENS_11ChannelArgs5ValueEE7ForEachIZNKS2_9UnionWithES2_E3$_0EEvOT_"(ptr noundef nonnull align 8 dereferenceable(8) %0, ptr noundef nonnull align 8 dereferenceable(8) %1) #5 align 2 {
  %3 = alloca ptr, align 8
  %4 = alloca ptr, align 8
  store ptr %0, ptr %3, align 8, !tbaa !18
  store ptr %1, ptr %4, align 8, !tbaa !3
  %5 = load ptr, ptr %3, align 8
  %6 = getelementptr inbounds nuw %"class.grpc_core::AVL", ptr %5, i32 0, i32 0
  %7 = call noundef ptr @_ZNK9grpc_core13RefCountedPtrINS_3AVLINS_21RefCountedStringValueENS_11ChannelArgs5ValueEE4NodeEE3getEv(ptr noundef nonnull align 8 dereferenceable(8) %6)
  %8 = load ptr, ptr %4, align 8, !tbaa !3
  call void @"_ZN9grpc_core3AVLINS_21RefCountedStringValueENS_11ChannelArgs5ValueEE11ForEachImplIZNKS2_9UnionWithES2_E3$_0EEvPKNS4_4NodeEOT_"(ptr noundef %7, ptr noundef nonnull align 8 dereferenceable(8) %8)
  ret void
}

; Function Attrs: mustprogress nounwind uwtable
define linkonce_odr noundef i64 @_ZNK9grpc_core3AVLINS_21RefCountedStringValueENS_11ChannelArgs5ValueEE6HeightEv(ptr noundef nonnull align 8 dereferenceable(8) %0) #6 comdat align 2 {
  %2 = alloca i64, align 8
  %3 = alloca ptr, align 8
  store ptr %0, ptr %3, align 8, !tbaa !18
  %4 = load ptr, ptr %3, align 8
  %5 = getelementptr inbounds nuw %"class.grpc_core::AVL", ptr %4, i32 0, i32 0
  %6 = call noundef zeroext i1 @_ZNK9grpc_core13RefCountedPtrINS_3AVLINS_21RefCountedStringValueENS_11ChannelArgs5ValueEE4NodeEEeqEDn(ptr noundef nonnull align 8 dereferenceable(8) %5, ptr null)
  br i1 %6, label %7, label %8

7:                                                ; preds = %1
  store i64 0, ptr %2, align 8
  br label %13

8:                                                ; preds = %1
  %9 = getelementptr inbounds nuw %"class.grpc_core::AVL", ptr %4, i32 0, i32 0
  %10 = call noundef ptr @_ZNK9grpc_core13RefCountedPtrINS_3AVLINS_21RefCountedStringValueENS_11ChannelArgs5ValueEE4NodeEEptEv(ptr noundef nonnull align 8 dereferenceable(8) %9)
  %11 = getelementptr inbounds nuw %"struct.grpc_core::AVL<grpc_core::RefCountedStringValue, grpc_core::ChannelArgs::Value>::Node", ptr %10, i32 0, i32 4
  %12 = load i64, ptr %11, align 8, !tbaa !115
  store i64 %12, ptr %2, align 8
  br label %13

13:                                               ; preds = %8, %7
  %14 = load i64, ptr %2, align 8
  ret i64 %14
}

; Function Attrs: mustprogress nounwind uwtable
define linkonce_odr noundef zeroext i1 @_ZNK9grpc_core3AVLINS_21RefCountedStringValueENS_11ChannelArgs5ValueEE5EmptyEv(ptr noundef nonnull align 8 dereferenceable(8) %0) #6 comdat align 2 {
  %2 = alloca ptr, align 8
  store ptr %0, ptr %2, align 8, !tbaa !18
  %3 = load ptr, ptr %2, align 8
  %4 = getelementptr inbounds nuw %"class.grpc_core::AVL", ptr %3, i32 0, i32 0
  %5 = call noundef zeroext i1 @_ZNK9grpc_core13RefCountedPtrINS_3AVLINS_21RefCountedStringValueENS_11ChannelArgs5ValueEE4NodeEEeqEDn(ptr noundef nonnull align 8 dereferenceable(8) %4, ptr null)
  ret i1 %5
}

; Function Attrs: mustprogress uwtable
define void @_ZNK9grpc_core11ChannelArgs9UnionWithES0_(ptr dead_on_unwind noalias writable sret(%"class.grpc_core::ChannelArgs") align 8 %0, ptr noundef nonnull align 8 dereferenceable(8) %1, ptr noundef %2) #5 align 2 personality ptr @__gxx_personality_v0 {
  %4 = alloca ptr, align 8
  %5 = alloca ptr, align 8
  %6 = alloca ptr, align 8
  %7 = alloca %class.anon.56, align 8
  %8 = alloca i1, align 1
  %9 = alloca %class.anon.57, align 8
  %10 = alloca ptr, align 8
  %11 = alloca i32, align 4
  store ptr %0, ptr %4, align 8
  store ptr %1, ptr %5, align 8, !tbaa !16
  store ptr %2, ptr %6, align 8, !tbaa !16
  %12 = load ptr, ptr %5, align 8
  %13 = getelementptr inbounds nuw %"class.grpc_core::ChannelArgs", ptr %12, i32 0, i32 0
  %14 = call noundef zeroext i1 @_ZNK9grpc_core3AVLINS_21RefCountedStringValueENS_11ChannelArgs5ValueEE5EmptyEv(ptr noundef nonnull align 8 dereferenceable(8) %13)
  br i1 %14, label %15, label %16

15:                                               ; preds = %3
  call void @_ZN9grpc_core11ChannelArgsC1EOS0_(ptr noundef nonnull align 8 dereferenceable(8) %0, ptr noundef nonnull align 8 dereferenceable(8) %2) #3
  br label %40

16:                                               ; preds = %3
  %17 = getelementptr inbounds nuw %"class.grpc_core::ChannelArgs", ptr %2, i32 0, i32 0
  %18 = call noundef zeroext i1 @_ZNK9grpc_core3AVLINS_21RefCountedStringValueENS_11ChannelArgs5ValueEE5EmptyEv(ptr noundef nonnull align 8 dereferenceable(8) %17)
  br i1 %18, label %19, label %20

19:                                               ; preds = %16
  call void @_ZN9grpc_core11ChannelArgsC1ERKS0_(ptr noundef nonnull align 8 dereferenceable(8) %0, ptr noundef nonnull align 8 dereferenceable(8) %12)
  br label %40

20:                                               ; preds = %16
  %21 = getelementptr inbounds nuw %"class.grpc_core::ChannelArgs", ptr %12, i32 0, i32 0
  %22 = call noundef i64 @_ZNK9grpc_core3AVLINS_21RefCountedStringValueENS_11ChannelArgs5ValueEE6HeightEv(ptr noundef nonnull align 8 dereferenceable(8) %21)
  %23 = getelementptr inbounds nuw %"class.grpc_core::ChannelArgs", ptr %2, i32 0, i32 0
  %24 = call noundef i64 @_ZNK9grpc_core3AVLINS_21RefCountedStringValueENS_11ChannelArgs5ValueEE6HeightEv(ptr noundef nonnull align 8 dereferenceable(8) %23)
  %25 = icmp ule i64 %22, %24
  br i1 %25, label %26, label %29

26:                                               ; preds = %20
  %27 = getelementptr inbounds nuw %"class.grpc_core::ChannelArgs", ptr %12, i32 0, i32 0
  call void @llvm.lifetime.start.p0(i64 8, ptr %7) #3
  %28 = getelementptr inbounds nuw %class.anon.56, ptr %7, i32 0, i32 0
  store ptr %2, ptr %28, align 8, !tbaa !16
  call void @"_ZNK9grpc_core3AVLINS_21RefCountedStringValueENS_11ChannelArgs5ValueEE7ForEachIZNKS2_9UnionWithES2_E3$_0EEvOT_"(ptr noundef nonnull align 8 dereferenceable(8) %27, ptr noundef nonnull align 8 dereferenceable(8) %7)
  call void @llvm.lifetime.end.p0(i64 8, ptr %7) #3
  call void @_ZN9grpc_core11ChannelArgsC1EOS0_(ptr noundef nonnull align 8 dereferenceable(8) %0, ptr noundef nonnull align 8 dereferenceable(8) %2) #3
  br label %40

29:                                               ; preds = %20
  store i1 false, ptr %8, align 1
  call void @_ZN9grpc_core11ChannelArgsC1ERKS0_(ptr noundef nonnull align 8 dereferenceable(8) %0, ptr noundef nonnull align 8 dereferenceable(8) %12)
  %30 = getelementptr inbounds nuw %"class.grpc_core::ChannelArgs", ptr %2, i32 0, i32 0
  call void @llvm.lifetime.start.p0(i64 8, ptr %9) #3
  %31 = getelementptr inbounds nuw %class.anon.57, ptr %9, i32 0, i32 0
  store ptr %0, ptr %31, align 8, !tbaa !16
  invoke void @"_ZNK9grpc_core3AVLINS_21RefCountedStringValueENS_11ChannelArgs5ValueEE7ForEachIZNKS2_9UnionWithES2_E3$_1EEvOT_"(ptr noundef nonnull align 8 dereferenceable(8) %30, ptr noundef nonnull align 8 dereferenceable(8) %9)
          to label %32 unwind label %34

32:                                               ; preds = %29
  call void @llvm.lifetime.end.p0(i64 8, ptr %9) #3
  store i1 true, ptr %8, align 1
  %33 = load i1, ptr %8, align 1
  br i1 %33, label %39, label %38

34:                                               ; preds = %29
  %35 = landingpad { ptr, i32 }
          cleanup
  %36 = extractvalue { ptr, i32 } %35, 0
  store ptr %36, ptr %10, align 8
  %37 = extractvalue { ptr, i32 } %35, 1
  store i32 %37, ptr %11, align 4
  call void @llvm.lifetime.end.p0(i64 8, ptr %9) #3
  call void @_ZN9grpc_core11ChannelArgsD1Ev(ptr noundef nonnull align 8 dereferenceable(8) %0) #3
  br label %41

38:                                               ; preds = %32
  call void @_ZN9grpc_core11ChannelArgsD1Ev(ptr noundef nonnull align 8 dereferenceable(8) %0) #3
  br label %39

39:                                               ; preds = %38, %32
  br label %40

40:                                               ; preds = %39, %26, %19, %15
  ret void

41:                                               ; preds = %34
  %42 = load ptr, ptr %10, align 8
  %43 = load i32, ptr %11, align 4
  %44 = insertvalue { ptr, i32 } poison, ptr %42, 0
  %45 = insertvalue { ptr, i32 } %44, i32 %43, 1
  resume { ptr, i32 } %45
}