; Function Attrs: mustprogress uwtable
define void @_ZNK9grpc_core11ChannelArgs9UnionWithES0_(ptr dead_on_unwind noalias writable sret(%"class.grpc_core::ChannelArgs") align 8 %0, ptr noundef nonnull align 8 dereferenceable(8) %1, ptr noundef %2) local_unnamed_addr #9 align 2 personality ptr @__gxx_personality_v0 {
  %4 = alloca %class.anon.56, align 8
  %5 = alloca %class.anon.57, align 8
  %6 = load ptr, ptr %1, align 8, !tbaa !21
  %7 = icmp eq ptr %6, null
  br i1 %7, label %8, label %9

8:                                                ; preds = %3
  tail call void @_ZN9grpc_core11ChannelArgsC1EOS0_(ptr noundef nonnull align 8 dereferenceable(8) %0, ptr noundef nonnull align 8 dereferenceable(8) %2) #37
  br label %21

9:                                                ; preds = %3
  %10 = load ptr, ptr %2, align 8, !tbaa !21
  %11 = icmp eq ptr %10, null
  br i1 %11, label %12, label %_ZNK9grpc_core3AVLINS_21RefCountedStringValueENS_11ChannelArgs5ValueEE6HeightEv.exit5

12:                                               ; preds = %9
  tail call void @_ZN9grpc_core11ChannelArgsC1ERKS0_(ptr noundef nonnull align 8 dereferenceable(8) %0, ptr noundef nonnull align 8 dereferenceable(8) %1)
  br label %21

_ZNK9grpc_core3AVLINS_21RefCountedStringValueENS_11ChannelArgs5ValueEE6HeightEv.exit5: ; preds = %9
  %13 = getelementptr inbounds nuw i8, ptr %6, i64 48
  %14 = load i64, ptr %13, align 8, !tbaa !155
  %15 = getelementptr inbounds nuw i8, ptr %10, i64 48
  %16 = load i64, ptr %15, align 8, !tbaa !155
  %.not = icmp ugt i64 %14, %16
  br i1 %.not, label %18, label %17

17:                                               ; preds = %_ZNK9grpc_core3AVLINS_21RefCountedStringValueENS_11ChannelArgs5ValueEE6HeightEv.exit5
  call void @llvm.lifetime.start.p0(i64 8, ptr nonnull %4) #37
  store ptr %2, ptr %4, align 8, !tbaa !161
  call fastcc void @"_ZN9grpc_core3AVLINS_21RefCountedStringValueENS_11ChannelArgs5ValueEE11ForEachImplIZNKS2_9UnionWithES2_E3$_0EEvPKNS4_4NodeEOT_"(ptr noundef nonnull %6, ptr noundef nonnull align 8 dereferenceable(8) %4)
  call void @llvm.lifetime.end.p0(i64 8, ptr nonnull %4) #37
  call void @_ZN9grpc_core11ChannelArgsC1EOS0_(ptr noundef nonnull align 8 dereferenceable(8) %0, ptr noundef nonnull align 8 dereferenceable(8) %2) #37
  br label %21

18:                                               ; preds = %_ZNK9grpc_core3AVLINS_21RefCountedStringValueENS_11ChannelArgs5ValueEE6HeightEv.exit5
  tail call void @_ZN9grpc_core11ChannelArgsC1ERKS0_(ptr noundef nonnull align 8 dereferenceable(8) %0, ptr noundef nonnull align 8 dereferenceable(8) %1)
  call void @llvm.lifetime.start.p0(i64 8, ptr nonnull %5) #37
  store ptr %0, ptr %5, align 8, !tbaa !161
  %.val3 = load ptr, ptr %2, align 8, !tbaa !21
  invoke fastcc void @"_ZN9grpc_core3AVLINS_21RefCountedStringValueENS_11ChannelArgs5ValueEE11ForEachImplIZNKS2_9UnionWithES2_E3$_1EEvPKNS4_4NodeEOT_"(ptr noundef %.val3, ptr noundef nonnull align 8 dereferenceable(8) %5)
          to label %"_ZNK9grpc_core3AVLINS_21RefCountedStringValueENS_11ChannelArgs5ValueEE7ForEachIZNKS2_9UnionWithES2_E3$_1EEvOT_.exit" unwind label %19

"_ZNK9grpc_core3AVLINS_21RefCountedStringValueENS_11ChannelArgs5ValueEE7ForEachIZNKS2_9UnionWithES2_E3$_1EEvOT_.exit": ; preds = %18
  call void @llvm.lifetime.end.p0(i64 8, ptr nonnull %5) #37
  br label %21

19:                                               ; preds = %18
  %20 = landingpad { ptr, i32 }
          cleanup
  call void @llvm.lifetime.end.p0(i64 8, ptr nonnull %5) #37
  call void @_ZN9grpc_core11ChannelArgsD1Ev(ptr noundef nonnull align 8 dereferenceable(8) %0) #37
  resume { ptr, i32 } %20

21:                                               ; preds = %"_ZNK9grpc_core3AVLINS_21RefCountedStringValueENS_11ChannelArgs5ValueEE7ForEachIZNKS2_9UnionWithES2_E3$_1EEvOT_.exit", %17, %12, %8
  ret void
}